target datalayout = "e-m:e-p270:32:32-p271:32:32-p272:64:64-i64:64-i128:128-f80:128-n8:16:32:64-S128"
target triple = "x86_64-pc-linux-gnu"

%"class.llvm::SmallVectorBase" = type { ptr, i32, i32 }
%"struct.llvm::ISD::ArgFlagsTy" = type { i64, i32, i32 }
%"class.llvm::MVT" = type { i16 }
%"struct.llvm::ISD::InputArg" = type <{ %"struct.llvm::ISD::ArgFlagsTy", %"class.llvm::MVT", [6 x i8], %"struct.llvm::EVT", i8, [3 x i8], i32, i32, [4 x i8] }>
%"struct.llvm::EVT" = type { %"class.llvm::MVT", ptr }

; Function Attrs: mustprogress nounwind uwtable
define linkonce_odr hidden noundef ptr @_ZNK4llvm25SmallVectorTemplateCommonINS_3ISD8InputArgEvE5beginEv(ptr noundef nonnull align 8 dereferenceable(16) %0) #0 comdat align 2 {
  %2 = alloca ptr, align 8
  store ptr %0, ptr %2, align 8
  %3 = load ptr, ptr %2, align 8
  %4 = getelementptr inbounds nuw %"class.llvm::SmallVectorBase", ptr %3, i32 0, i32 0
  %5 = load ptr, ptr %4, align 8
  ret ptr %5
}

; Function Attrs: mustprogress nounwind uwtable
define linkonce_odr hidden noundef nonnull align 8 dereferenceable(52) ptr @_ZNK4llvm25SmallVectorTemplateCommonINS_3ISD8InputArgEvEixEm(ptr noundef nonnull align 8 dereferenceable(16) %0, i64 noundef %1) #0 comdat align 2 {
  %3 = alloca ptr, align 8
  %4 = alloca i64, align 8
  store ptr %0, ptr %3, align 8
  store i64 %1, ptr %4, align 8
  %5 = load ptr, ptr %3, align 8
  %6 = call noundef ptr @_ZNK4llvm25SmallVectorTemplateCommonINS_3ISD8InputArgEvE5beginEv(ptr noundef nonnull align 8 dereferenceable(16) %5)
  %7 = load i64, ptr %4, align 8
  %8 = getelementptr inbounds %"struct.llvm::ISD::InputArg", ptr %6, i64 %7
  ret ptr %8
}

; Function Attrs: mustprogress nounwind uwtable
define dso_local void @_ZN4llvm7CCState17AnalyzeCallResultERKNS_15SmallVectorImplINS_3ISD8InputArgEEEPFbjNS_3MVTES7_NS_11CCValAssign7LocInfoENS2_10ArgFlagsTyERS0_E(ptr noundef nonnull align 8 dereferenceable(420) %0, ptr noundef nonnull align 8 dereferenceable(16) %1, ptr noundef %2) #0 align 2 {
  %4 = alloca ptr, align 8
  %5 = alloca ptr, align 8
  %6 = alloca ptr, align 8
  %7 = alloca i32, align 4
  %8 = alloca i32, align 4
  %9 = alloca %"class.llvm::MVT", align 2
  %10 = alloca %"struct.llvm::ISD::ArgFlagsTy", align 4
  %11 = alloca %"class.llvm::MVT", align 2
  %12 = alloca %"class.llvm::MVT", align 2
  %13 = alloca %"struct.llvm::ISD::ArgFlagsTy", align 4
  store ptr %0, ptr %4, align 8
  store ptr %1, ptr %5, align 8
  store ptr %2, ptr %6, align 8
  %14 = load ptr, ptr %4, align 8
  store i32 0, ptr %7, align 4
  %15 = load ptr, ptr %5, align 8
  %16 = call noundef i64 @_ZNK4llvm15SmallVectorBaseIjE4sizeEv(ptr noundef nonnull align 8 dereferenceable(16) %15)
  %17 = trunc i64 %16 to i32
  store i32 %17, ptr %8, align 4
  br label %18

18:                                               ; preds = %46, %3
  %19 = load i32, ptr %7, align 4
  %20 = load i32, ptr %8, align 4
  %21 = icmp ne i32 %19, %20
  br i1 %21, label %22, label %49

22:                                               ; preds = %18
  %23 = load ptr, ptr %5, align 8
  %24 = load i32, ptr %7, align 4
  %25 = zext i32 %24 to i64
  %26 = call noundef nonnull align 8 dereferenceable(52) ptr @_ZNK4llvm25SmallVectorTemplateCommonINS_3ISD8InputArgEvEixEm(ptr noundef nonnull align 8 dereferenceable(16) %23, i64 noundef %25)
  %27 = getelementptr inbounds nuw %"struct.llvm::ISD::InputArg", ptr %26, i32 0, i32 1
  call void @llvm.memcpy.p0.p0.i64(ptr align 2 %9, ptr align 8 %27, i64 2, i1 false)
  %28 = load ptr, ptr %5, align 8
  %29 = load i32, ptr %7, align 4
  %30 = zext i32 %29 to i64
  %31 = call noundef nonnull align 8 dereferenceable(52) ptr @_ZNK4llvm25SmallVectorTemplateCommonINS_3ISD8InputArgEvEixEm(ptr noundef nonnull align 8 dereferenceable(16) %28, i64 noundef %30)
  %32 = getelementptr inbounds nuw %"struct.llvm::ISD::InputArg", ptr %31, i32 0, i32 0
  call void @llvm.memcpy.p0.p0.i64(ptr align 4 %10, ptr align 8 %32, i64 16, i1 false)
  %33 = load ptr, ptr %6, align 8
  %34 = load i32, ptr %7, align 4
  call void @llvm.memcpy.p0.p0.i64(ptr align 2 %11, ptr align 2 %9, i64 2, i1 false)
  call void @llvm.memcpy.p0.p0.i64(ptr align 2 %12, ptr align 2 %9, i64 2, i1 false)
  call void @llvm.memcpy.p0.p0.i64(ptr align 4 %13, ptr align 4 %10, i64 16, i1 false)
  %35 = getelementptr inbounds nuw %"class.llvm::MVT", ptr %11, i32 0, i32 0
  %36 = load i16, ptr %35, align 2
  %37 = getelementptr inbounds nuw %"class.llvm::MVT", ptr %12, i32 0, i32 0
  %38 = load i16, ptr %37, align 2
  %39 = getelementptr inbounds nuw { i64, i64 }, ptr %13, i32 0, i32 0
  %40 = load i64, ptr %39, align 4
  %41 = getelementptr inbounds nuw { i64, i64 }, ptr %13, i32 0, i32 1
  %42 = load i64, ptr %41, align 4
  %43 = call noundef zeroext i1 %33(i32 noundef %34, i16 %36, i16 %38, i32 noundef 0, i64 %40, i64 %42, ptr noundef nonnull align 8 dereferenceable(420) %14)
  br i1 %43, label %44, label %45

44:                                               ; preds = %22
  unreachable

45:                                               ; preds = %22
  br label %46

46:                                               ; preds = %45
  %47 = load i32, ptr %7, align 4
  %48 = add i32 %47, 1
  store i32 %48, ptr %7, align 4
  br label %18, !llvm.loop !12

49:                                               ; preds = %18
  ret void
}