; Function Attrs: mustprogress nounwind uwtable
define dso_local void @_ZN4llvm7CCState17AnalyzeCallResultERKNS_15SmallVectorImplINS_3ISD8InputArgEEEPFbjNS_3MVTES7_NS_11CCValAssign7LocInfoENS2_10ArgFlagsTyERS0_E(ptr noundef nonnull align 8 dereferenceable(420) %0, ptr noundef nonnull align 8 dereferenceable(16) %1, ptr nocapture noundef readonly %2) local_unnamed_addr #0 align 2 {
  %4 = tail call noundef i64 @_ZNK4llvm15SmallVectorBaseIjE4sizeEv(ptr noundef nonnull align 8 dereferenceable(16) %1) #10
  %5 = and i64 %4, 4294967295
  %.not16 = icmp eq i64 %5, 0
  br i1 %.not16, label %._crit_edge, label %.lr.ph.preheader

.lr.ph.preheader:                                 ; preds = %3
  %6 = and i64 %4, 4294967295
  br label %.lr.ph

.lr.ph:                                           ; preds = %.lr.ph.preheader, %.lr.ph
  %indvars.iv = phi i64 [ 0, %.lr.ph.preheader ], [ %indvars.iv.next, %.lr.ph ]
  %7 = load ptr, ptr %1, align 8
  %8 = getelementptr inbounds %"struct.llvm::ISD::InputArg", ptr %7, i64 %indvars.iv
  %9 = getelementptr inbounds nuw i8, ptr %8, i64 16
  %.sroa.05.0.copyload = load i16, ptr %9, align 8
  %.sroa.03.0.copyload = load i64, ptr %8, align 8
  %.sroa.24.0..sroa_idx = getelementptr inbounds i8, ptr %8, i64 8
  %.sroa.24.0.copyload = load i64, ptr %.sroa.24.0..sroa_idx, align 8
  %10 = trunc nuw i64 %indvars.iv to i32
  %11 = tail call noundef zeroext i1 %2(i32 noundef %10, i16 %.sroa.05.0.copyload, i16 %.sroa.05.0.copyload, i32 noundef 0, i64 %.sroa.03.0.copyload, i64 %.sroa.24.0.copyload, ptr noundef nonnull align 8 dereferenceable(420) %0) #10
  %12 = xor i1 %11, true
  tail call void @llvm.assume(i1 %12)
  %indvars.iv.next = add nuw nsw i64 %indvars.iv, 1
  %.not = icmp eq i64 %indvars.iv.next, %6
  br i1 %.not, label %._crit_edge, label %.lr.ph, !llvm.loop !19

._crit_edge:                                      ; preds = %.lr.ph, %3
  ret void
}